EXPORTS 
	??_R0?AV?$_Ref_count_obj2@VThreadPoolExecutor@@@std@@@8 	 DATA
	??_R0?AVQJSEngine@@@8 	 DATA
	??_R0?AVQObject@@@8 	 DATA
	??_R0?AVQQmlApplicationEngine@@@8 	 DATA
	??_R0?AVQQmlEngine@@@8 	 DATA
	??_R0?AV_Ref_count_base@std@@@8 	 DATA
	??$?0AEAPEAVVasAurora@wang@@@?$_Compressed_pair@U?$default_delete@VVasAurora@wang@@@std@@PEAVVasAurora@wang@@$00@std@@QEAA@U_Zero_then_variadic_args_t@1@AEAPEAVVasAurora@wang@@@Z
	??$?0H@?$_Ref_count_obj2@VThreadPoolExecutor@@@std@@QEAA@$$QEAH@Z
	??$?0U?$default_delete@VVasAurora@wang@@@std@@$0A@@?$unique_ptr@VVasAurora@wang@@U?$default_delete@VVasAurora@wang@@@std@@@std@@QEAA@PEAVVasAurora@wang@@@Z
	??$?0VThreadPoolExecutor@@$0A@@?$shared_ptr@VIExecutor@@@std@@QEAA@$$QEAV?$shared_ptr@VThreadPoolExecutor@@@1@@Z
	??$?4VThreadPoolExecutor@@@?$shared_ptr@VIExecutor@@@std@@QEAAAEAV01@$$QEAV?$shared_ptr@VThreadPoolExecutor@@@1@@Z
	??$?6U?$char_traits@D@std@@@std@@YAAEAV?$basic_ostream@DU?$char_traits@D@std@@@0@AEAV10@PEBD@Z
	??$_Atomic_address_as@HU?$_Atomic_padded@H@std@@@std@@YAPEDHAEBU?$_Atomic_padded@H@0@@Z
	??$_Atomic_address_as@JU?$_Atomic_padded@H@std@@@std@@YAPECJAEAU?$_Atomic_padded@H@0@@Z
	??$_Construct_in_place@VThreadPoolExecutor@@H@std@@YAXAEAVThreadPoolExecutor@@$$QEAH@Z
	??$_Destroy_in_place@VThreadPoolExecutor@@@std@@YAXAEAVThreadPoolExecutor@@@Z
	??$_Move_construct_from@VThreadPoolExecutor@@@?$_Ptr_base@VIExecutor@@@std@@IEAAX$$QEAV?$_Ptr_base@VThreadPoolExecutor@@@1@@Z
	??$_Move_construct_from@VThreadPoolExecutor@@@?$_Ptr_base@VThreadPoolExecutor@@@std@@IEAAX$$QEAV01@@Z
	??$_Set_ptr_rep_and_enable_shared@VThreadPoolExecutor@@@?$shared_ptr@VThreadPoolExecutor@@@std@@AEAAXQEAVThreadPoolExecutor@@QEAV_Ref_count_base@1@@Z
	??$_Voidify_iter@PEAVThreadPoolExecutor@@@std@@YAPEAXPEAVThreadPoolExecutor@@@Z
	??$addressof@VThreadPoolExecutor@@@std@@YAPEAVThreadPoolExecutor@@AEAV1@@Z
	??$deref@H@?$QAtomicOps@H@@SA_NAEAU?$atomic@H@std@@@Z
	??$forward@AEAPEAVVasAurora@wang@@@std@@YAAEAPEAVVasAurora@wang@@AEAPEAV12@@Z
	??$forward@H@std@@YA$$QEAHAEAH@Z
	??$forward@PEAVQQmlApplicationEngine@@@std@@YA$$QEAPEAVQQmlApplicationEngine@@AEAPEAV1@@Z
	??$loadRelaxed@H@?$QAtomicOps@H@@SAHAEBU?$atomic@H@std@@@Z
	??$make_shared@VThreadPoolExecutor@@H@std@@YA?AV?$shared_ptr@VThreadPoolExecutor@@@0@$$QEAH@Z
	??$make_unique@VVasAurora@wang@@PEAVQQmlApplicationEngine@@$0A@@std@@YA?AV?$unique_ptr@VVasAurora@wang@@U?$default_delete@VVasAurora@wang@@@std@@@0@$$QEAPEAVQQmlApplicationEngine@@@Z
	??$move@AEAPEAVIExecutor@@@std@@YA$$QEAPEAVIExecutor@@AEAPEAV1@@Z
	??$move@AEAPEAV_Ref_count_base@std@@@std@@YA$$QEAPEAV_Ref_count_base@0@AEAPEAV10@@Z
	??$move@AEAV?$shared_ptr@VThreadPoolExecutor@@@std@@@std@@YA$$QEAV?$shared_ptr@VThreadPoolExecutor@@@0@AEAV10@@Z
	??$swap@PEAVIExecutor@@$0A@@std@@YAXAEAPEAVIExecutor@@0@Z
	??$swap@PEAV_Ref_count_base@std@@$0A@@std@@YAXAEAPEAV_Ref_count_base@0@0@Z
	??0?$QArrayDataPointer@_S@@QEAA@PEAU?$QTypedArrayData@_S@@PEA_S_J@Z
	??0?$_Ptr_base@VIExecutor@@@std@@IEAA@XZ
	??0?$_Ptr_base@VThreadPoolExecutor@@@std@@IEAA@XZ
	??0?$shared_ptr@VIExecutor@@@std@@QEAA@XZ
	??0?$shared_ptr@VThreadPoolExecutor@@@std@@QEAA@$$QEAV01@@Z
	??0?$shared_ptr@VThreadPoolExecutor@@@std@@QEAA@XZ
	??0AppBootstrap@@QEAA@XZ
	??0VasAurora@wang@@QEAA@PEAVQQmlApplicationEngine@@@Z
	??0_Ref_count_base@std@@IEAA@XZ
	??0_Sentry_base@?$basic_ostream@DU?$char_traits@D@std@@@std@@QEAA@AEAV12@@Z
	??0sentry@?$basic_ostream@DU?$char_traits@D@std@@@std@@QEAA@AEAV12@@Z
	??1?$QArrayDataPointer@_S@@QEAA@XZ
	??1?$_Ref_count_obj2@VThreadPoolExecutor@@@std@@UEAA@XZ
	??1?$shared_ptr@VIExecutor@@@std@@QEAA@XZ
	??1?$shared_ptr@VThreadPoolExecutor@@@std@@QEAA@XZ
	??1?$unique_ptr@VVasAurora@wang@@U?$default_delete@VVasAurora@wang@@@std@@@std@@QEAA@XZ
	??1AppBootstrap@@QEAA@XZ
	??1_Ref_count_base@std@@UEAA@XZ
	??1_Sentry_base@?$basic_ostream@DU?$char_traits@D@std@@@std@@QEAA@XZ
	??1sentry@?$basic_ostream@DU?$char_traits@D@std@@@std@@QEAA@XZ
	??2@YAPEAX_KPEAX@Z
	??Bsentry@?$basic_ostream@DU?$char_traits@D@std@@@std@@QEBA_NXZ
	??C?$QArrayDataPointer@_S@@QEAAPEAU?$QArrayDataOps@_S@@XZ
	??F?$_Atomic_integral@H$03@std@@QEAAHXZ
	??R?$default_delete@VVasAurora@wang@@@std@@QEBAXPEAVVasAurora@wang@@@Z
	?_Decref@?$_Ptr_base@VIExecutor@@@std@@IEAAXXZ
	?_Decref@?$_Ptr_base@VThreadPoolExecutor@@@std@@IEAAXXZ
	?_Decref@_Ref_count_base@std@@QEAAXXZ
	?_Decwref@_Ref_count_base@std@@QEAAXXZ
	?_Delete_this@?$_Ref_count_obj2@VThreadPoolExecutor@@@std@@EEAAXXZ
	?_Destroy@?$_Ref_count_obj2@VThreadPoolExecutor@@@std@@EEAAXXZ
	?_Get_deleter@_Ref_count_base@std@@UEBAPEAXAEBVtype_info@@@Z
	?_Get_first@?$_Compressed_pair@U?$default_delete@VVasAurora@wang@@@std@@PEAVVasAurora@wang@@$00@std@@QEAAAEAU?$default_delete@VVasAurora@wang@@@2@XZ
	?_Load_barrier@std@@YAXW4memory_order@1@@Z
	?_Swap@?$_Ptr_base@VIExecutor@@@std@@IEAAXAEAV12@@Z
	?__empty_global_delete@@YAXPEAX@Z
	?__empty_global_delete@@YAXPEAXW4align_val_t@std@@@Z
	?__empty_global_delete@@YAXPEAX_K@Z
	?__empty_global_delete@@YAXPEAX_KW4align_val_t@std@@@Z
	?cmake_automoc_silence_linker_warningc01e205eabf5b224fabefb69856b1acf745682ab37091a717ef09f16ceee3c7f@@YAXXZ
	?deallocate@?$QTypedArrayData@_S@@SAXPEAUQArrayData@@@Z
	?deref@?$QArrayDataPointer@_S@@QEAA_NXZ
	?deref@?$QBasicAtomicInteger@H@@QEAA_NXZ
	?deref@QArrayData@@QEAA_NXZ
	?destroyAll@?$QPodArrayOps@_S@QtPrivate@@QEAAXXZ
	?eof@?$_Narrow_char_traits@DH@std@@SAHXZ
	?eq_int_type@?$_Narrow_char_traits@DH@std@@SA_NAEBH0@Z
	?init@AppBootstrap@@QEAAXXZ
	?initEngine@AppBootstrap@@AEAAXXZ
	?initExecutor@AppBootstrap@@AEAAXXZ
	?length@?$_Narrow_char_traits@DH@std@@SA_KQEBD@Z
	?load@?$_Atomic_storage@H$03@std@@QEBAHW4memory_order@2@@Z
	?loadRelaxed@?$QBasicAtomicInteger@H@@QEBAHXZ
	?shutdown@AppBootstrap@@QEAAXXZ
	?start@AppBootstrap@@QEAAXXZ
	?swap@?$shared_ptr@VIExecutor@@@std@@QEAAXAEAV12@@Z
